; Function Attrs: mustprogress nounwind uwtable
define void @_ZN6google8protobuf2io26CopyingOutputStreamAdaptorD2Ev(ptr nocapture noundef nonnull align 8 dereferenceable(48) %0) unnamed_addr #7 align 2 personality ptr @__gxx_personality_v0 {
  store ptr getelementptr inbounds inrange(-16, 56) (i8, ptr @_ZTVN6google8protobuf2io26CopyingOutputStreamAdaptorE, i64 16), ptr %0, align 8
  %2 = getelementptr inbounds i8, ptr %0, i64 17
  %3 = load i8, ptr %2, align 1
  %4 = trunc i8 %3 to i1
  br i1 %4, label %_ZN6google8protobuf2io26CopyingOutputStreamAdaptor11WriteBufferEv.exit, label %5

5:                                                ; preds = %1
  %6 = getelementptr inbounds i8, ptr %0, i64 44
  %7 = load i32, ptr %6, align 4
  %8 = icmp eq i32 %7, 0
  br i1 %8, label %_ZN6google8protobuf2io26CopyingOutputStreamAdaptor11WriteBufferEv.exit, label %9

9:                                                ; preds = %5
  %10 = getelementptr inbounds i8, ptr %0, i64 8
  %11 = load ptr, ptr %10, align 8
  %12 = getelementptr inbounds i8, ptr %0, i64 32
  %13 = load ptr, ptr %12, align 8
  %14 = load ptr, ptr %11, align 8
  %15 = getelementptr inbounds i8, ptr %14, i64 16
  %16 = load ptr, ptr %15, align 8
  %17 = invoke noundef zeroext i1 %16(ptr noundef nonnull align 8 dereferenceable(8) %11, ptr noundef %13, i32 noundef %7)
          to label %.noexc unwind label %40

.noexc:                                           ; preds = %9
  br i1 %17, label %18, label %24

18:                                               ; preds = %.noexc
  %19 = load i32, ptr %6, align 4
  %20 = sext i32 %19 to i64
  %21 = getelementptr inbounds i8, ptr %0, i64 24
  %22 = load i64, ptr %21, align 8
  %23 = add nsw i64 %22, %20
  store i64 %23, ptr %21, align 8
  store i32 0, ptr %6, align 4
  br label %_ZN6google8protobuf2io26CopyingOutputStreamAdaptor11WriteBufferEv.exit

24:                                               ; preds = %.noexc
  store i8 1, ptr %2, align 1
  store i32 0, ptr %6, align 4
  %25 = load ptr, ptr %12, align 8
  store ptr null, ptr %12, align 8
  %.not.i.i.i.i.i = icmp eq ptr %25, null
  br i1 %.not.i.i.i.i.i, label %_ZN6google8protobuf2io26CopyingOutputStreamAdaptor11WriteBufferEv.exit, label %_ZNKSt14default_deleteIA_hEclIhEENSt9enable_ifIXsr14is_convertibleIPA_T_PS0_EE5valueEvE4typeEPS4_.exit.i.i.i.i.i

_ZNKSt14default_deleteIA_hEclIhEENSt9enable_ifIXsr14is_convertibleIPA_T_PS0_EE5valueEvE4typeEPS4_.exit.i.i.i.i.i: ; preds = %24
  tail call void @_ZdaPv(ptr noundef nonnull %25) #17
  br label %_ZN6google8protobuf2io26CopyingOutputStreamAdaptor11WriteBufferEv.exit

_ZN6google8protobuf2io26CopyingOutputStreamAdaptor11WriteBufferEv.exit: ; preds = %_ZNKSt14default_deleteIA_hEclIhEENSt9enable_ifIXsr14is_convertibleIPA_T_PS0_EE5valueEvE4typeEPS4_.exit.i.i.i.i.i, %24, %18, %5, %1
  %26 = getelementptr inbounds i8, ptr %0, i64 16
  %27 = load i8, ptr %26, align 8
  %28 = trunc i8 %27 to i1
  br i1 %28, label %29, label %37

29:                                               ; preds = %_ZN6google8protobuf2io26CopyingOutputStreamAdaptor11WriteBufferEv.exit
  %30 = getelementptr inbounds i8, ptr %0, i64 8
  %31 = load ptr, ptr %30, align 8
  %32 = icmp eq ptr %31, null
  br i1 %32, label %37, label %33

33:                                               ; preds = %29
  %34 = load ptr, ptr %31, align 8
  %35 = getelementptr inbounds i8, ptr %34, i64 8
  %36 = load ptr, ptr %35, align 8
  tail call void %36(ptr noundef nonnull align 8 dereferenceable(8) %31) #16
  br label %37

37:                                               ; preds = %29, %33, %_ZN6google8protobuf2io26CopyingOutputStreamAdaptor11WriteBufferEv.exit
  %38 = getelementptr inbounds i8, ptr %0, i64 32
  %39 = load ptr, ptr %38, align 8
  %.not.i = icmp eq ptr %39, null
  br i1 %.not.i, label %_ZNSt10unique_ptrIA_hSt14default_deleteIS0_EED2Ev.exit, label %_ZNKSt14default_deleteIA_hEclIhEENSt9enable_ifIXsr14is_convertibleIPA_T_PS0_EE5valueEvE4typeEPS4_.exit.i

_ZNKSt14default_deleteIA_hEclIhEENSt9enable_ifIXsr14is_convertibleIPA_T_PS0_EE5valueEvE4typeEPS4_.exit.i: ; preds = %37
  tail call void @_ZdaPv(ptr noundef nonnull %39) #17
  br label %_ZNSt10unique_ptrIA_hSt14default_deleteIS0_EED2Ev.exit

_ZNSt10unique_ptrIA_hSt14default_deleteIS0_EED2Ev.exit: ; preds = %37, %_ZNKSt14default_deleteIA_hEclIhEENSt9enable_ifIXsr14is_convertibleIPA_T_PS0_EE5valueEvE4typeEPS4_.exit.i
  store ptr null, ptr %38, align 8
  ret void

40:                                               ; preds = %9
  %41 = landingpad { ptr, i32 }
          catch ptr null
  %42 = extractvalue { ptr, i32 } %41, 0
  tail call void @__clang_call_terminate(ptr %42) #19
  unreachable
}